target datalayout = "e-m:e-p270:32:32-p271:32:32-p272:64:64-i64:64-i128:128-f80:128-n8:16:32:64-S128"
target triple = "x86_64-pc-linux-gnu"

%struct.lexbor_str_t = type { ptr, i64 }
%struct.lxb_selectors_t = type { ptr, ptr, i32 }
%struct.lxb_css_selector_list = type { ptr, ptr, ptr, ptr, ptr, ptr, i32 }
%struct.lxb_selectors_entry = type { i64, ptr, ptr, ptr, ptr, ptr }
%struct.lxb_css_selector = type { i32, i32, %struct.lexbor_str_t, %struct.lexbor_str_t, %union.lxb_css_selector_u, ptr, ptr, ptr }
%union.lxb_css_selector_u = type { %struct.lxb_css_selector_attribute_t }
%struct.lxb_css_selector_attribute_t = type { i32, i32, %struct.lexbor_str_t }
%struct.lxb_dom_node = type { %struct.lxb_dom_event_target, i64, i64, i64, ptr, ptr, ptr, ptr, ptr, ptr, ptr, i32, i64 }
%struct.lxb_dom_event_target = type { ptr }

; Function Attrs: nounwind uwtable
define internal ptr @lxb_selectors_following_reverse(ptr noundef %0, ptr noundef %1, ptr noundef %2, ptr noundef %3) #0 {
  %5 = alloca ptr, align 8
  %6 = alloca ptr, align 8
  %7 = alloca ptr, align 8
  %8 = alloca ptr, align 8
  %9 = alloca ptr, align 8
  store ptr %0, ptr %6, align 8
  store ptr %1, ptr %7, align 8
  store ptr %2, ptr %8, align 8
  store ptr %3, ptr %9, align 8
  %10 = load ptr, ptr %9, align 8
  %11 = getelementptr inbounds %struct.lxb_dom_node, ptr %10, i32 0, i32 6
  %12 = load ptr, ptr %11, align 8
  store ptr %12, ptr %9, align 8
  br label %13

13:                                               ; preds = %29, %4
  %14 = load ptr, ptr %9, align 8
  %15 = icmp ne ptr %14, null
  br i1 %15, label %16, label %33

16:                                               ; preds = %13
  %17 = load ptr, ptr %9, align 8
  %18 = getelementptr inbounds %struct.lxb_dom_node, ptr %17, i32 0, i32 11
  %19 = load i32, ptr %18, align 8
  %20 = icmp eq i32 %19, 1
  br i1 %20, label %21, label %29

21:                                               ; preds = %16
  %22 = load ptr, ptr %6, align 8
  %23 = load ptr, ptr %7, align 8
  %24 = load ptr, ptr %8, align 8
  %25 = load ptr, ptr %9, align 8
  %26 = call zeroext i1 @lxb_selectors_match(ptr noundef %22, ptr noundef %23, ptr noundef %24, ptr noundef %25)
  br i1 %26, label %27, label %29

27:                                               ; preds = %21
  %28 = load ptr, ptr %9, align 8
  store ptr %28, ptr %5, align 8
  br label %34

29:                                               ; preds = %21, %16
  %30 = load ptr, ptr %9, align 8
  %31 = getelementptr inbounds %struct.lxb_dom_node, ptr %30, i32 0, i32 6
  %32 = load ptr, ptr %31, align 8
  store ptr %32, ptr %9, align 8
  br label %13

33:                                               ; preds = %13
  store ptr null, ptr %5, align 8
  br label %34

34:                                               ; preds = %33, %27
  %35 = load ptr, ptr %5, align 8
  ret ptr %35
}

; Function Attrs: nounwind uwtable
define internal ptr @lxb_selectors_sibling_reverse(ptr noundef %0, ptr noundef %1, ptr noundef %2, ptr noundef %3) #0 {
  %5 = alloca ptr, align 8
  %6 = alloca ptr, align 8
  %7 = alloca ptr, align 8
  %8 = alloca ptr, align 8
  %9 = alloca ptr, align 8
  store ptr %0, ptr %6, align 8
  store ptr %1, ptr %7, align 8
  store ptr %2, ptr %8, align 8
  store ptr %3, ptr %9, align 8
  %10 = load ptr, ptr %9, align 8
  %11 = getelementptr inbounds %struct.lxb_dom_node, ptr %10, i32 0, i32 6
  %12 = load ptr, ptr %11, align 8
  store ptr %12, ptr %9, align 8
  br label %13

13:                                               ; preds = %30, %4
  %14 = load ptr, ptr %9, align 8
  %15 = icmp ne ptr %14, null
  br i1 %15, label %16, label %34

16:                                               ; preds = %13
  %17 = load ptr, ptr %9, align 8
  %18 = getelementptr inbounds %struct.lxb_dom_node, ptr %17, i32 0, i32 11
  %19 = load i32, ptr %18, align 8
  %20 = icmp eq i32 %19, 1
  br i1 %20, label %21, label %30

21:                                               ; preds = %16
  %22 = load ptr, ptr %6, align 8
  %23 = load ptr, ptr %7, align 8
  %24 = load ptr, ptr %8, align 8
  %25 = load ptr, ptr %9, align 8
  %26 = call zeroext i1 @lxb_selectors_match(ptr noundef %22, ptr noundef %23, ptr noundef %24, ptr noundef %25)
  br i1 %26, label %27, label %29

27:                                               ; preds = %21
  %28 = load ptr, ptr %9, align 8
  store ptr %28, ptr %5, align 8
  br label %35

29:                                               ; preds = %21
  store ptr null, ptr %5, align 8
  br label %35

30:                                               ; preds = %16
  %31 = load ptr, ptr %9, align 8
  %32 = getelementptr inbounds %struct.lxb_dom_node, ptr %31, i32 0, i32 6
  %33 = load ptr, ptr %32, align 8
  store ptr %33, ptr %9, align 8
  br label %13

34:                                               ; preds = %13
  store ptr null, ptr %5, align 8
  br label %35

35:                                               ; preds = %34, %29, %27
  %36 = load ptr, ptr %5, align 8
  ret ptr %36
}

; Function Attrs: nounwind uwtable
define internal ptr @lxb_selectors_close(ptr noundef %0, ptr noundef %1, ptr noundef %2, ptr noundef %3) #0 {
  %5 = alloca ptr, align 8
  %6 = alloca ptr, align 8
  %7 = alloca ptr, align 8
  %8 = alloca ptr, align 8
  %9 = alloca ptr, align 8
  store ptr %0, ptr %6, align 8
  store ptr %1, ptr %7, align 8
  store ptr %2, ptr %8, align 8
  store ptr %3, ptr %9, align 8
  %10 = load ptr, ptr %6, align 8
  %11 = load ptr, ptr %7, align 8
  %12 = load ptr, ptr %8, align 8
  %13 = load ptr, ptr %9, align 8
  %14 = call zeroext i1 @lxb_selectors_match(ptr noundef %10, ptr noundef %11, ptr noundef %12, ptr noundef %13)
  br i1 %14, label %15, label %17

15:                                               ; preds = %4
  %16 = load ptr, ptr %9, align 8
  store ptr %16, ptr %5, align 8
  br label %18

17:                                               ; preds = %4
  store ptr null, ptr %5, align 8
  br label %18

18:                                               ; preds = %17, %15
  %19 = load ptr, ptr %5, align 8
  ret ptr %19
}

; Function Attrs: nounwind uwtable
define internal ptr @lxb_selectors_descendant_reverse(ptr noundef %0, ptr noundef %1, ptr noundef %2, ptr noundef %3) #0 {
  %5 = alloca ptr, align 8
  %6 = alloca ptr, align 8
  %7 = alloca ptr, align 8
  %8 = alloca ptr, align 8
  %9 = alloca ptr, align 8
  store ptr %0, ptr %6, align 8
  store ptr %1, ptr %7, align 8
  store ptr %2, ptr %8, align 8
  store ptr %3, ptr %9, align 8
  %10 = load ptr, ptr %9, align 8
  %11 = getelementptr inbounds %struct.lxb_dom_node, ptr %10, i32 0, i32 7
  %12 = load ptr, ptr %11, align 8
  store ptr %12, ptr %9, align 8
  br label %13

13:                                               ; preds = %29, %4
  %14 = load ptr, ptr %9, align 8
  %15 = icmp ne ptr %14, null
  br i1 %15, label %16, label %33

16:                                               ; preds = %13
  %17 = load ptr, ptr %9, align 8
  %18 = getelementptr inbounds %struct.lxb_dom_node, ptr %17, i32 0, i32 11
  %19 = load i32, ptr %18, align 8
  %20 = icmp eq i32 %19, 1
  br i1 %20, label %21, label %29

21:                                               ; preds = %16
  %22 = load ptr, ptr %6, align 8
  %23 = load ptr, ptr %7, align 8
  %24 = load ptr, ptr %8, align 8
  %25 = load ptr, ptr %9, align 8
  %26 = call zeroext i1 @lxb_selectors_match(ptr noundef %22, ptr noundef %23, ptr noundef %24, ptr noundef %25)
  br i1 %26, label %27, label %29

27:                                               ; preds = %21
  %28 = load ptr, ptr %9, align 8
  store ptr %28, ptr %5, align 8
  br label %34

29:                                               ; preds = %21, %16
  %30 = load ptr, ptr %9, align 8
  %31 = getelementptr inbounds %struct.lxb_dom_node, ptr %30, i32 0, i32 7
  %32 = load ptr, ptr %31, align 8
  store ptr %32, ptr %9, align 8
  br label %13

33:                                               ; preds = %13
  store ptr null, ptr %5, align 8
  br label %34

34:                                               ; preds = %33, %27
  %35 = load ptr, ptr %5, align 8
  ret ptr %35
}

; Function Attrs: nounwind uwtable
define hidden void @lxb_selectors_clean(ptr noundef %0) #0 {
  %2 = alloca ptr, align 8
  store ptr %0, ptr %2, align 8
  %3 = load ptr, ptr %2, align 8
  %4 = getelementptr inbounds %struct.lxb_selectors_t, ptr %3, i32 0, i32 0
  %5 = load ptr, ptr %4, align 8
  call void @lexbor_dobject_clean(ptr noundef %5)
  %6 = load ptr, ptr %2, align 8
  %7 = getelementptr inbounds %struct.lxb_selectors_t, ptr %6, i32 0, i32 1
  %8 = load ptr, ptr %7, align 8
  call void @lexbor_dobject_clean(ptr noundef %8)
  ret void
}

; Function Attrs: nounwind uwtable
define internal i32 @lxb_selectors_find_by_reverse(ptr noundef %0, ptr noundef %1, ptr noundef %2, ptr noundef %3, ptr noundef %4) #0 {
  %6 = alloca i32, align 4
  %7 = alloca ptr, align 8
  %8 = alloca ptr, align 8
  %9 = alloca ptr, align 8
  %10 = alloca ptr, align 8
  %11 = alloca ptr, align 8
  %12 = alloca i32, align 4
  %13 = alloca ptr, align 8
  %14 = alloca ptr, align 8
  %15 = alloca i32, align 4
  store ptr %0, ptr %7, align 8
  store ptr %1, ptr %8, align 8
  store ptr %2, ptr %9, align 8
  store ptr %3, ptr %10, align 8
  store ptr %4, ptr %11, align 8
  %16 = load ptr, ptr %8, align 8
  store ptr %16, ptr %13, align 8
  %17 = load ptr, ptr %7, align 8
  %18 = getelementptr inbounds %struct.lxb_selectors_t, ptr %17, i32 0, i32 0
  %19 = load ptr, ptr %18, align 8
  %20 = call ptr @lexbor_dobject_calloc(ptr noundef %19)
  store ptr %20, ptr %14, align 8
  %21 = load ptr, ptr %14, align 8
  %22 = icmp eq ptr %21, null
  br i1 %22, label %23, label %24

23:                                               ; preds = %5
  store i32 2, ptr %6, align 4
  br label %122

24:                                               ; preds = %5
  %25 = load ptr, ptr %9, align 8
  %26 = load ptr, ptr %14, align 8
  %27 = getelementptr inbounds %struct.lxb_selectors_entry, ptr %26, i32 0, i32 1
  store ptr %25, ptr %27, align 8
  store i32 1, ptr %15, align 4
  br label %28

28:                                               ; preds = %120, %24
  %29 = load ptr, ptr %8, align 8
  %30 = load ptr, ptr %14, align 8
  %31 = getelementptr inbounds %struct.lxb_selectors_entry, ptr %30, i32 0, i32 2
  store ptr %29, ptr %31, align 8
  %32 = load ptr, ptr %14, align 8
  %33 = getelementptr inbounds %struct.lxb_selectors_entry, ptr %32, i32 0, i32 0
  store i64 0, ptr %33, align 8
  %34 = load ptr, ptr %14, align 8
  %35 = getelementptr inbounds %struct.lxb_selectors_entry, ptr %34, i32 0, i32 1
  %36 = load ptr, ptr %35, align 8
  store ptr %36, ptr %9, align 8
  %37 = load i32, ptr %15, align 4
  switch i32 %37, label %82 [
    i32 0, label %38
    i32 1, label %44
    i32 2, label %50
    i32 3, label %69
    i32 4, label %75
    i32 5, label %81
  ]

38:                                               ; preds = %28
  %39 = load ptr, ptr %7, align 8
  %40 = load ptr, ptr %14, align 8
  %41 = load ptr, ptr %9, align 8
  %42 = load ptr, ptr %8, align 8
  %43 = call ptr @lxb_selectors_descendant_reverse(ptr noundef %39, ptr noundef %40, ptr noundef %41, ptr noundef %42)
  store ptr %43, ptr %8, align 8
  br label %83

44:                                               ; preds = %28
  %45 = load ptr, ptr %7, align 8
  %46 = load ptr, ptr %14, align 8
  %47 = load ptr, ptr %9, align 8
  %48 = load ptr, ptr %8, align 8
  %49 = call ptr @lxb_selectors_close(ptr noundef %45, ptr noundef %46, ptr noundef %47, ptr noundef %48)
  store ptr %49, ptr %8, align 8
  br label %83

50:                                               ; preds = %28
  %51 = load ptr, ptr %8, align 8
  %52 = getelementptr inbounds %struct.lxb_dom_node, ptr %51, i32 0, i32 7
  %53 = load ptr, ptr %52, align 8
  store ptr %53, ptr %8, align 8
  %54 = load ptr, ptr %8, align 8
  %55 = icmp eq ptr %54, null
  br i1 %55, label %67, label %56

56:                                               ; preds = %50
  %57 = load ptr, ptr %8, align 8
  %58 = getelementptr inbounds %struct.lxb_dom_node, ptr %57, i32 0, i32 11
  %59 = load i32, ptr %58, align 8
  %60 = icmp ne i32 %59, 1
  br i1 %60, label %67, label %61

61:                                               ; preds = %56
  %62 = load ptr, ptr %7, align 8
  %63 = load ptr, ptr %14, align 8
  %64 = load ptr, ptr %9, align 8
  %65 = load ptr, ptr %8, align 8
  %66 = call zeroext i1 @lxb_selectors_match(ptr noundef %62, ptr noundef %63, ptr noundef %64, ptr noundef %65)
  br i1 %66, label %68, label %67

67:                                               ; preds = %61, %56, %50
  store i32 0, ptr %6, align 4
  br label %122

68:                                               ; preds = %61
  br label %83

69:                                               ; preds = %28
  %70 = load ptr, ptr %7, align 8
  %71 = load ptr, ptr %14, align 8
  %72 = load ptr, ptr %9, align 8
  %73 = load ptr, ptr %8, align 8
  %74 = call ptr @lxb_selectors_sibling_reverse(ptr noundef %70, ptr noundef %71, ptr noundef %72, ptr noundef %73)
  store ptr %74, ptr %8, align 8
  br label %83

75:                                               ; preds = %28
  %76 = load ptr, ptr %7, align 8
  %77 = load ptr, ptr %14, align 8
  %78 = load ptr, ptr %9, align 8
  %79 = load ptr, ptr %8, align 8
  %80 = call ptr @lxb_selectors_following_reverse(ptr noundef %76, ptr noundef %77, ptr noundef %78, ptr noundef %79)
  store ptr %80, ptr %8, align 8
  br label %83

81:                                               ; preds = %28
  br label %82

82:                                               ; preds = %81, %28
  store i32 1, ptr %6, align 4
  br label %122

83:                                               ; preds = %75, %69, %68, %44, %38
  %84 = load ptr, ptr %8, align 8
  %85 = icmp eq ptr %84, null
  br i1 %85, label %86, label %87

86:                                               ; preds = %83
  store i32 0, ptr %6, align 4
  br label %122

87:                                               ; preds = %83
  %88 = load ptr, ptr %9, align 8
  %89 = getelementptr inbounds %struct.lxb_css_selector, ptr %88, i32 0, i32 6
  %90 = load ptr, ptr %89, align 8
  %91 = icmp eq ptr %90, null
  br i1 %91, label %92, label %111

92:                                               ; preds = %87
  %93 = load ptr, ptr %10, align 8
  %94 = load ptr, ptr %13, align 8
  %95 = load ptr, ptr %9, align 8
  %96 = getelementptr inbounds %struct.lxb_css_selector, ptr %95, i32 0, i32 7
  %97 = load ptr, ptr %96, align 8
  %98 = getelementptr inbounds %struct.lxb_css_selector_list, ptr %97, i32 0, i32 6
  %99 = load i32, ptr %98, align 8
  %100 = load ptr, ptr %11, align 8
  %101 = call i32 %93(ptr noundef %94, i32 noundef %99, ptr noundef %100)
  store i32 %101, ptr %12, align 4
  %102 = load i32, ptr %12, align 4
  %103 = icmp ne i32 %102, 0
  br i1 %103, label %104, label %110

104:                                              ; preds = %92
  %105 = load i32, ptr %12, align 4
  %106 = icmp eq i32 %105, 19
  br i1 %106, label %107, label %108

107:                                              ; preds = %104
  store i32 0, ptr %6, align 4
  br label %122

108:                                              ; preds = %104
  %109 = load i32, ptr %12, align 4
  store i32 %109, ptr %6, align 4
  br label %122

110:                                              ; preds = %92
  store i32 0, ptr %6, align 4
  br label %122

111:                                              ; preds = %87
  %112 = load ptr, ptr %9, align 8
  %113 = getelementptr inbounds %struct.lxb_css_selector, ptr %112, i32 0, i32 1
  %114 = load i32, ptr %113, align 4
  store i32 %114, ptr %15, align 4
  %115 = load ptr, ptr %9, align 8
  %116 = getelementptr inbounds %struct.lxb_css_selector, ptr %115, i32 0, i32 6
  %117 = load ptr, ptr %116, align 8
  %118 = load ptr, ptr %14, align 8
  %119 = getelementptr inbounds %struct.lxb_selectors_entry, ptr %118, i32 0, i32 1
  store ptr %117, ptr %119, align 8
  br label %120

120:                                              ; preds = %111
  br i1 true, label %28, label %121

121:                                              ; preds = %120
  store i32 0, ptr %6, align 4
  br label %122

122:                                              ; preds = %121, %110, %108, %107, %86, %82, %67, %23
  %123 = load i32, ptr %6, align 4
  ret i32 %123
}

; Function Attrs: nounwind uwtable
define hidden i32 @lxb_selectors_find_reverse(ptr noundef %0, ptr noundef %1, ptr noundef %2, ptr noundef %3, ptr noundef %4) #0 {
  %6 = alloca i32, align 4
  %7 = alloca ptr, align 8
  %8 = alloca ptr, align 8
  %9 = alloca ptr, align 8
  %10 = alloca ptr, align 8
  %11 = alloca ptr, align 8
  %12 = alloca i32, align 4
  store ptr %0, ptr %7, align 8
  store ptr %1, ptr %8, align 8
  store ptr %2, ptr %9, align 8
  store ptr %3, ptr %10, align 8
  store ptr %4, ptr %11, align 8
  br label %13

13:                                               ; preds = %29, %5
  %14 = load ptr, ptr %9, align 8
  %15 = icmp ne ptr %14, null
  br i1 %15, label %16, label %33

16:                                               ; preds = %13
  %17 = load ptr, ptr %7, align 8
  %18 = load ptr, ptr %8, align 8
  %19 = load ptr, ptr %9, align 8
  %20 = getelementptr inbounds %struct.lxb_css_selector_list, ptr %19, i32 0, i32 1
  %21 = load ptr, ptr %20, align 8
  %22 = load ptr, ptr %10, align 8
  %23 = load ptr, ptr %11, align 8
  %24 = call i32 @lxb_selectors_find_by_reverse(ptr noundef %17, ptr noundef %18, ptr noundef %21, ptr noundef %22, ptr noundef %23)
  store i32 %24, ptr %12, align 4
  %25 = load i32, ptr %12, align 4
  %26 = icmp ne i32 %25, 0
  br i1 %26, label %27, label %29

27:                                               ; preds = %16
  %28 = load i32, ptr %12, align 4
  store i32 %28, ptr %6, align 4
  br label %35

29:                                               ; preds = %16
  %30 = load ptr, ptr %9, align 8
  %31 = getelementptr inbounds %struct.lxb_css_selector_list, ptr %30, i32 0, i32 3
  %32 = load ptr, ptr %31, align 8
  store ptr %32, ptr %9, align 8
  br label %13

33:                                               ; preds = %13
  %34 = load ptr, ptr %7, align 8
  call void @lxb_selectors_clean(ptr noundef %34)
  store i32 0, ptr %6, align 4
  br label %35

35:                                               ; preds = %33, %27
  %36 = load i32, ptr %6, align 4
  ret i32 %36
}