; Function Attrs: nounwind uwtable
define hidden noundef i32 @lxb_selectors_find_reverse(ptr nocapture noundef %0, ptr noundef %1, ptr noundef readonly %2, ptr nocapture noundef readonly %3, ptr noundef %4) local_unnamed_addr #0 {
  %.not32 = icmp eq ptr %2, null
  br i1 %.not32, label %._crit_edge, label %.lr.ph

.lr.ph:                                           ; preds = %5, %lxb_selectors_find_by_reverse.exit.thread
  %.01033 = phi ptr [ %60, %lxb_selectors_find_by_reverse.exit.thread ], [ %2, %5 ]
  %6 = getelementptr inbounds i8, ptr %.01033, i64 8
  %7 = load ptr, ptr %6, align 8
  %8 = load ptr, ptr %0, align 8
  %9 = tail call ptr @lexbor_dobject_calloc(ptr noundef %8) #6
  %10 = icmp eq ptr %9, null
  br i1 %10, label %lxb_selectors_find_by_reverse.exit.thread16, label %11

11:                                               ; preds = %.lr.ph
  %12 = getelementptr inbounds i8, ptr %9, i64 8
  %13 = getelementptr inbounds i8, ptr %9, i64 16
  br label %14

14:                                               ; preds = %56, %11
  %storemerge.i = phi ptr [ %7, %11 ], [ %48, %56 ]
  %.046.i = phi ptr [ %1, %11 ], [ %.169.i, %56 ]
  %.0.i = phi i32 [ 1, %11 ], [ %58, %56 ]
  store ptr %storemerge.i, ptr %12, align 8
  store ptr %.046.i, ptr %13, align 8
  store i64 0, ptr %9, align 8
  switch i32 %.0.i, label %lxb_selectors_find_by_reverse.exit.thread16 [
    i32 0, label %15
    i32 1, label %22
    i32 2, label %25
    i32 3, label %.preheader.i
    i32 4, label %40
  ]

15:                                               ; preds = %14
  %.0.in11.i.i = getelementptr inbounds i8, ptr %.046.i, i64 56
  %.012.i.i = load ptr, ptr %.0.in11.i.i, align 8
  %.not13.i.i = icmp eq ptr %.012.i.i, null
  br i1 %.not13.i.i, label %lxb_selectors_find_by_reverse.exit.thread, label %.lr.ph.i.i

.lr.ph.i.i:                                       ; preds = %15, %21
  %.014.i.i = phi ptr [ %.0.i.i, %21 ], [ %.012.i.i, %15 ]
  %16 = getelementptr inbounds i8, ptr %.014.i.i, i64 88
  %17 = load i32, ptr %16, align 8
  %18 = icmp eq i32 %17, 1
  br i1 %18, label %19, label %21

19:                                               ; preds = %.lr.ph.i.i
  %20 = tail call fastcc zeroext i1 @lxb_selectors_match(ptr noundef nonnull %0, ptr noundef nonnull %9, ptr noundef %storemerge.i, ptr noundef nonnull %.014.i.i)
  br i1 %20, label %lxb_selectors_descendant_reverse.exit.thread67.i, label %21

21:                                               ; preds = %19, %.lr.ph.i.i
  %.0.in.i.i = getelementptr inbounds i8, ptr %.014.i.i, i64 56
  %.0.i.i = load ptr, ptr %.0.in.i.i, align 8
  %.not.i.i = icmp eq ptr %.0.i.i, null
  br i1 %.not.i.i, label %lxb_selectors_find_by_reverse.exit.thread, label %.lr.ph.i.i

22:                                               ; preds = %14
  %23 = tail call fastcc zeroext i1 @lxb_selectors_match(ptr noundef nonnull %0, ptr noundef nonnull %9, ptr noundef %storemerge.i, ptr noundef %.046.i)
  %24 = icmp ne ptr %.046.i, null
  %or.cond.not.i = select i1 %23, i1 %24, i1 false
  br i1 %or.cond.not.i, label %lxb_selectors_descendant_reverse.exit.thread67.i, label %lxb_selectors_find_by_reverse.exit.thread

25:                                               ; preds = %14
  %26 = getelementptr inbounds i8, ptr %.046.i, i64 56
  %27 = load ptr, ptr %26, align 8
  %28 = icmp eq ptr %27, null
  br i1 %28, label %lxb_selectors_find_by_reverse.exit.thread, label %29

29:                                               ; preds = %25
  %30 = getelementptr inbounds i8, ptr %27, i64 88
  %31 = load i32, ptr %30, align 8
  %.not.i = icmp eq i32 %31, 1
  br i1 %.not.i, label %32, label %lxb_selectors_find_by_reverse.exit.thread

32:                                               ; preds = %29
  %33 = tail call fastcc zeroext i1 @lxb_selectors_match(ptr noundef nonnull %0, ptr noundef nonnull %9, ptr noundef %storemerge.i, ptr noundef nonnull %27)
  br i1 %33, label %lxb_selectors_descendant_reverse.exit.thread67.i, label %lxb_selectors_find_by_reverse.exit.thread

.preheader.i:                                     ; preds = %14, %34
  %.pn.i.i = phi ptr [ %.0.i53.i, %34 ], [ %.046.i, %14 ]
  %.0.in.i52.i = getelementptr inbounds i8, ptr %.pn.i.i, i64 48
  %.0.i53.i = load ptr, ptr %.0.in.i52.i, align 8
  %.not.i54.i = icmp eq ptr %.0.i53.i, null
  br i1 %.not.i54.i, label %lxb_selectors_find_by_reverse.exit.thread, label %34

34:                                               ; preds = %.preheader.i
  %35 = getelementptr inbounds i8, ptr %.0.i53.i, i64 88
  %36 = load i32, ptr %35, align 8
  %37 = icmp eq i32 %36, 1
  br i1 %37, label %38, label %.preheader.i

38:                                               ; preds = %34
  %39 = tail call fastcc zeroext i1 @lxb_selectors_match(ptr noundef nonnull %0, ptr noundef nonnull %9, ptr noundef %storemerge.i, ptr noundef nonnull %.0.i53.i)
  br i1 %39, label %lxb_selectors_descendant_reverse.exit.thread67.i, label %lxb_selectors_find_by_reverse.exit.thread

40:                                               ; preds = %14
  %.0.in11.i55.i = getelementptr inbounds i8, ptr %.046.i, i64 48
  %.012.i56.i = load ptr, ptr %.0.in11.i55.i, align 8
  %.not13.i57.i = icmp eq ptr %.012.i56.i, null
  br i1 %.not13.i57.i, label %lxb_selectors_find_by_reverse.exit.thread, label %.lr.ph.i58.i

.lr.ph.i58.i:                                     ; preds = %40, %46
  %.014.i59.i = phi ptr [ %.0.i61.i, %46 ], [ %.012.i56.i, %40 ]
  %41 = getelementptr inbounds i8, ptr %.014.i59.i, i64 88
  %42 = load i32, ptr %41, align 8
  %43 = icmp eq i32 %42, 1
  br i1 %43, label %44, label %46

44:                                               ; preds = %.lr.ph.i58.i
  %45 = tail call fastcc zeroext i1 @lxb_selectors_match(ptr noundef nonnull %0, ptr noundef nonnull %9, ptr noundef %storemerge.i, ptr noundef nonnull %.014.i59.i)
  br i1 %45, label %lxb_selectors_descendant_reverse.exit.thread67.i, label %46

46:                                               ; preds = %44, %.lr.ph.i58.i
  %.0.in.i60.i = getelementptr inbounds i8, ptr %.014.i59.i, i64 48
  %.0.i61.i = load ptr, ptr %.0.in.i60.i, align 8
  %.not.i62.i = icmp eq ptr %.0.i61.i, null
  br i1 %.not.i62.i, label %lxb_selectors_find_by_reverse.exit.thread, label %.lr.ph.i58.i

lxb_selectors_descendant_reverse.exit.thread67.i: ; preds = %44, %19, %38, %32, %22
  %.169.i = phi ptr [ %27, %32 ], [ %.0.i53.i, %38 ], [ %.046.i, %22 ], [ %.014.i.i, %19 ], [ %.014.i59.i, %44 ]
  %47 = getelementptr inbounds i8, ptr %storemerge.i, i64 72
  %48 = load ptr, ptr %47, align 8
  %49 = icmp eq ptr %48, null
  br i1 %49, label %50, label %56

50:                                               ; preds = %lxb_selectors_descendant_reverse.exit.thread67.i
  %51 = getelementptr inbounds i8, ptr %storemerge.i, i64 80
  %52 = load ptr, ptr %51, align 8
  %53 = getelementptr inbounds i8, ptr %52, i64 48
  %54 = load i32, ptr %53, align 8
  %55 = tail call i32 %3(ptr noundef %1, i32 noundef %54, ptr noundef %4) #6
  switch i32 %55, label %lxb_selectors_find_by_reverse.exit.thread16 [
    i32 0, label %lxb_selectors_find_by_reverse.exit.thread
    i32 19, label %lxb_selectors_find_by_reverse.exit.thread
  ]

56:                                               ; preds = %lxb_selectors_descendant_reverse.exit.thread67.i
  %57 = getelementptr inbounds i8, ptr %storemerge.i, i64 4
  %58 = load i32, ptr %57, align 4
  br label %14

lxb_selectors_find_by_reverse.exit.thread:        ; preds = %32, %29, %25, %22, %15, %38, %40, %46, %.preheader.i, %21, %50, %50
  %59 = getelementptr inbounds i8, ptr %.01033, i64 24
  %60 = load ptr, ptr %59, align 8
  %.not = icmp eq ptr %60, null
  br i1 %.not, label %._crit_edge, label %.lr.ph

._crit_edge:                                      ; preds = %lxb_selectors_find_by_reverse.exit.thread, %5
  %61 = load ptr, ptr %0, align 8
  tail call void @lexbor_dobject_clean(ptr noundef %61) #6
  %62 = getelementptr inbounds i8, ptr %0, i64 8
  %63 = load ptr, ptr %62, align 8
  tail call void @lexbor_dobject_clean(ptr noundef %63) #6
  br label %lxb_selectors_find_by_reverse.exit.thread16

lxb_selectors_find_by_reverse.exit.thread16:      ; preds = %50, %.lr.ph, %14, %._crit_edge
  %.0 = phi i32 [ 0, %._crit_edge ], [ 1, %14 ], [ %55, %50 ], [ 2, %.lr.ph ]
  ret i32 %.0
}